target datalayout = "e-m:e-p270:32:32-p271:32:32-p272:64:64-i64:64-i128:128-f80:128-n8:16:32:64-S128"
target triple = "x86_64-pc-linux-gnu"

%struct.rb_data_type_struct = type { ptr, %struct.anon.5, ptr, ptr, i64 }
%struct.anon.5 = type { ptr, ptr, ptr, ptr, [1 x ptr] }

@sym_invalid_byte_sequence = internal global i64 0, align 8
@sym_undefined_conversion = internal global i64 0, align 8
@sym_finished = internal global i64 0, align 8
@sym_incomplete_input = internal global i64 0, align 8
@econv_data_type = internal constant %struct.rb_data_type_struct { ptr @.str.110, %struct.anon.5 { ptr null, ptr @econv_free, ptr @econv_memsize, ptr null, [1 x ptr] zeroinitializer }, ptr null, ptr null, i64 1 }, align 8
@rb_eTypeError = external global i64, align 8
@.str.119 = private unnamed_addr constant [33 x i8] c"uninitialized encoding converter\00", align 1
@.str.127 = private unnamed_addr constant [45 x i8] c"unexpected result of econv_primitive_convert\00", align 1

; Function Attrs: nounwind sspstrong uwtable
define internal ptr @check_econv(i64 noundef %0) #0 {
  %2 = alloca i64, align 8
  %3 = alloca ptr, align 8
  store i64 %0, ptr %2, align 8, !tbaa !12
  call void @llvm.lifetime.start.p0(i64 8, ptr %3) #25
  %4 = load i64, ptr %2, align 8, !tbaa !12
  %5 = call ptr @rb_check_typeddata(i64 noundef %4, ptr noundef @econv_data_type)
  store ptr %5, ptr %3, align 8, !tbaa !30
  %6 = load ptr, ptr %3, align 8, !tbaa !30
  %7 = icmp ne ptr %6, null
  br i1 %7, label %10, label %8

8:                                                ; preds = %1
  %9 = load i64, ptr @rb_eTypeError, align 8, !tbaa !12
  call void (i64, ptr, ...) @rb_raise(i64 noundef %9, ptr noundef @.str.119) #26
  unreachable

10:                                               ; preds = %1
  %11 = load ptr, ptr %3, align 8, !tbaa !30
  call void @llvm.lifetime.end.p0(i64 8, ptr %3) #25
  ret ptr %11
}

; Function Attrs: nounwind sspstrong uwtable
define internal i64 @econv_finish(i64 noundef %0) #0 {
  %2 = alloca i64, align 8
  %3 = alloca i64, align 8
  %4 = alloca i64, align 8
  %5 = alloca [5 x i64], align 16
  %6 = alloca i32, align 4
  %7 = alloca ptr, align 8
  %8 = alloca i64, align 8
  store i64 %0, ptr %2, align 8, !tbaa !12
  call void @llvm.lifetime.start.p0(i64 8, ptr %3) #25
  call void @llvm.lifetime.start.p0(i64 8, ptr %4) #25
  call void @llvm.lifetime.start.p0(i64 40, ptr %5) #25
  call void @llvm.lifetime.start.p0(i64 4, ptr %6) #25
  call void @llvm.lifetime.start.p0(i64 8, ptr %7) #25
  %9 = load i64, ptr %2, align 8, !tbaa !12
  %10 = call ptr @check_econv(i64 noundef %9)
  store ptr %10, ptr %7, align 8, !tbaa !30
  %11 = call i64 @rb_str_new_static(ptr noundef null, i64 noundef 0)
  store i64 %11, ptr %4, align 8, !tbaa !12
  %12 = getelementptr [5 x i64], ptr %5, i64 0, i64 0
  store i64 4, ptr %12, align 16, !tbaa !12
  %13 = load i64, ptr %4, align 8, !tbaa !12
  %14 = getelementptr [5 x i64], ptr %5, i64 0, i64 1
  store i64 %13, ptr %14, align 8, !tbaa !12
  %15 = getelementptr [5 x i64], ptr %5, i64 0, i64 2
  store i64 4, ptr %15, align 16, !tbaa !12
  %16 = getelementptr [5 x i64], ptr %5, i64 0, i64 3
  store i64 4, ptr %16, align 8, !tbaa !12
  %17 = getelementptr [5 x i64], ptr %5, i64 0, i64 4
  store i64 1, ptr %17, align 16, !tbaa !12
  store i32 5, ptr %6, align 4, !tbaa !29
  %18 = load i32, ptr %6, align 4, !tbaa !29
  %19 = getelementptr inbounds [5 x i64], ptr %5, i64 0, i64 0
  %20 = load i64, ptr %2, align 8, !tbaa !12
  %21 = call i64 @econv_primitive_convert(i32 noundef %18, ptr noundef %19, i64 noundef %20)
  store i64 %21, ptr %3, align 8, !tbaa !12
  %22 = load i64, ptr %3, align 8, !tbaa !12
  %23 = load i64, ptr @sym_invalid_byte_sequence, align 8, !tbaa !12
  %24 = icmp eq i64 %22, %23
  br i1 %24, label %33, label %25

25:                                               ; preds = %1
  %26 = load i64, ptr %3, align 8, !tbaa !12
  %27 = load i64, ptr @sym_undefined_conversion, align 8, !tbaa !12
  %28 = icmp eq i64 %26, %27
  br i1 %28, label %33, label %29

29:                                               ; preds = %25
  %30 = load i64, ptr %3, align 8, !tbaa !12
  %31 = load i64, ptr @sym_incomplete_input, align 8, !tbaa !12
  %32 = icmp eq i64 %30, %31
  br i1 %32, label %33, label %37

33:                                               ; preds = %29, %25, %1
  call void @llvm.lifetime.start.p0(i64 8, ptr %8) #25
  %34 = load ptr, ptr %7, align 8, !tbaa !30
  %35 = call i64 @make_econv_exception(ptr noundef %34)
  store i64 %35, ptr %8, align 8, !tbaa !12
  %36 = load i64, ptr %8, align 8, !tbaa !12
  call void @rb_exc_raise(i64 noundef %36) #26
  unreachable

37:                                               ; preds = %29
  %38 = load i64, ptr %3, align 8, !tbaa !12
  %39 = load i64, ptr @sym_finished, align 8, !tbaa !12
  %40 = icmp ne i64 %38, %39
  br i1 %40, label %41, label %42

41:                                               ; preds = %37
  call void (ptr, ...) @rb_bug(ptr noundef @.str.127) #33
  unreachable

42:                                               ; preds = %37
  %43 = load i64, ptr %4, align 8, !tbaa !12
  call void @llvm.lifetime.end.p0(i64 8, ptr %7) #25
  call void @llvm.lifetime.end.p0(i64 4, ptr %6) #25
  call void @llvm.lifetime.end.p0(i64 40, ptr %5) #25
  call void @llvm.lifetime.end.p0(i64 8, ptr %4) #25
  call void @llvm.lifetime.end.p0(i64 8, ptr %3) #25
  ret i64 %43
}