; Function Attrs: nounwind sspstrong uwtable
define internal i64 @econv_finish(i64 noundef %0) #0 {
  %2 = alloca [5 x i64], align 16
  call void @llvm.lifetime.start.p0(i64 40, ptr nonnull %2) #22
  %3 = tail call ptr @rb_check_typeddata(i64 noundef %0, ptr noundef nonnull @econv_data_type) #22
  %.not.i = icmp eq ptr %3, null
  br i1 %.not.i, label %4, label %check_econv.exit

4:                                                ; preds = %1
  %5 = load i64, ptr @rb_eTypeError, align 8, !tbaa !22
  tail call void (i64, ptr, ...) @rb_raise(i64 noundef %5, ptr noundef nonnull @.str.119) #23
  unreachable

check_econv.exit:                                 ; preds = %1
  %6 = tail call i64 @rb_str_new_static(ptr noundef null, i64 noundef 0) #22
  store i64 4, ptr %2, align 16, !tbaa !22
  %7 = getelementptr inbounds nuw i8, ptr %2, i64 8
  store i64 %6, ptr %7, align 8, !tbaa !22
  %8 = getelementptr inbounds nuw i8, ptr %2, i64 16
  store i64 4, ptr %8, align 16, !tbaa !22
  %9 = getelementptr inbounds nuw i8, ptr %2, i64 24
  store i64 4, ptr %9, align 8, !tbaa !22
  %10 = getelementptr inbounds nuw i8, ptr %2, i64 32
  store i64 1, ptr %10, align 16, !tbaa !22
  %11 = call i64 @econv_primitive_convert(i32 noundef 5, ptr noundef nonnull %2, i64 noundef %0)
  %12 = load i64, ptr @sym_invalid_byte_sequence, align 8, !tbaa !22
  %13 = icmp eq i64 %11, %12
  %14 = load i64, ptr @sym_undefined_conversion, align 8
  %15 = icmp eq i64 %11, %14
  %or.cond = select i1 %13, i1 true, i1 %15
  %16 = load i64, ptr @sym_incomplete_input, align 8
  %17 = icmp eq i64 %11, %16
  %or.cond12 = select i1 %or.cond, i1 true, i1 %17
  br i1 %or.cond12, label %18, label %20

18:                                               ; preds = %check_econv.exit
  %19 = tail call fastcc i64 @make_econv_exception(ptr noundef nonnull %3)
  tail call void @rb_exc_raise(i64 noundef %19) #23
  unreachable

20:                                               ; preds = %check_econv.exit
  %21 = load i64, ptr @sym_finished, align 8, !tbaa !22
  %.not = icmp eq i64 %11, %21
  br i1 %.not, label %23, label %22

22:                                               ; preds = %20
  tail call void (ptr, ...) @rb_bug(ptr noundef nonnull @.str.127) #28
  unreachable

23:                                               ; preds = %20
  call void @llvm.lifetime.end.p0(i64 40, ptr nonnull %2) #22
  ret i64 %6
}